Certificate:
    Data:
        Version: 3 (0x2)
        Serial Number:
            03:f1:ca:63:73:62:26:60:6b:8e:9c:d0:c8:66:c6:f5:3e:50:42:ce
        Signature Algorithm: sha256WithRSAEncryption
        Issuer: C=ES, ST=ES, O=NSAA, OU=NSAA, CN=NSAA
        Validity
            Not Before: May 27 15:59:54 2023 GMT
            Not After : May 26 15:59:54 2024 GMT
        Subject: C=ES, ST=ES, O=NSAA, OU=NSAA, CN=10.0.2.15
        Subject Public Key Info:
            Public Key Algorithm: rsaEncryption
                Public-Key: (4096 bit)
                Modulus:
                    00:99:7a:78:81:0e:fc:68:08:db:93:25:9f:67:ca:
                    b7:af:d1:bc:c6:34:e1:33:a1:d7:62:b7:35:4e:fe:
                    25:a0:6a:70:a5:a5:5a:61:e4:ef:11:5c:2f:e2:5e:
                    f2:09:29:d5:96:03:9a:3b:57:4d:87:97:6a:e8:1c:
                    15:15:f8:9f:5a:ec:49:c8:87:d1:59:5d:5e:c6:3f:
                    d5:14:1d:25:b1:ac:bb:9c:34:b1:7e:ea:2e:5f:b4:
                    e6:d0:1a:1f:25:35:db:42:ae:fb:32:92:74:80:6f:
                    4c:90:c9:20:51:65:66:cd:17:d5:ba:a5:bc:33:01:
                    5d:4d:8a:a2:5a:28:e8:e9:7b:7f:dc:b2:88:dd:d9:
                    6b:90:d9:49:b0:9a:53:05:08:e8:df:2b:e8:38:a6:
                    2b:ee:aa:81:d2:90:2b:e7:22:36:71:c9:41:19:1f:
                    26:37:31:31:7d:28:af:95:8a:8b:4e:fa:ad:a8:7d:
                    0a:a1:d2:4e:1f:1f:1c:30:4f:63:58:21:72:82:4a:
                    c4:f6:15:23:0f:68:0c:ab:83:9e:13:82:09:83:7b:
                    1c:ff:d1:fa:be:99:a6:36:70:7a:29:03:27:8c:d4:
                    bd:53:41:2d:c8:c0:1c:a6:6d:1f:0f:f1:42:bf:ea:
                    cb:c8:22:3b:7a:cd:16:ac:04:34:21:27:89:70:a2:
                    c8:fb:25:6b:70:84:5e:9f:98:e0:9d:5e:71:b6:b1:
                    55:ff:4c:4e:fe:71:a8:ea:e3:d6:a0:69:3a:09:ed:
                    0e:fa:78:5b:a5:ef:62:85:42:6b:90:ff:61:3f:03:
                    f3:fd:de:d4:59:c3:a2:d7:26:5e:73:c3:54:49:d5:
                    d7:f5:df:6c:65:18:a2:16:21:ba:eb:a4:85:0a:1e:
                    df:94:62:16:42:87:84:43:d5:2d:2c:45:16:64:3a:
                    30:52:29:f3:27:e3:39:b9:74:a8:e4:65:ef:c3:2d:
                    da:19:29:3f:9d:1f:f5:9e:09:34:c8:f9:15:64:f8:
                    8a:4b:21:c8:34:73:a9:93:0e:f3:2a:70:7d:c4:a3:
                    e9:ec:bc:ad:b8:ac:d8:4a:7f:b5:74:c4:ec:22:73:
                    ef:ef:3c:16:02:2a:d7:4c:6f:f5:7e:e3:13:63:b7:
                    92:9a:21:c6:77:8a:1c:a2:a8:b3:e1:b1:a8:14:3c:
                    63:bc:1e:ad:4c:b4:d1:5d:47:41:d6:23:b7:e3:f0:
                    a1:cb:a7:00:d4:e4:b7:49:7c:82:c7:9e:27:ac:08:
                    a6:f3:21:28:aa:20:22:42:ed:75:54:ef:62:40:41:
                    6c:6f:10:29:a0:42:ca:e3:e1:6d:50:85:14:7b:8a:
                    3c:f5:fc:fd:5d:a9:c6:28:8b:0d:22:9d:2f:47:29:
                    42:0e:09
                Exponent: 65537 (0x10001)
        X509v3 extensions:
            X509v3 Basic Constraints: 
                CA:FALSE
            X509v3 Subject Key Identifier: 
                B2:17:A4:1F:7A:A6:20:C4:4F:BC:C9:C6:7D:CC:0B:AA:3F:12:D6:3C
            X509v3 Authority Key Identifier: 
                25:BE:0E:02:B6:8D:B4:7B:4D:3B:C6:96:36:D7:2D:9A:7D:9E:65:1D
            X509v3 Key Usage: critical
                Digital Signature
            X509v3 Extended Key Usage: critical
                OCSP Signing
    Signature Algorithm: sha256WithRSAEncryption
    Signature Value:
        9c:bd:1b:d5:b1:99:ba:c6:93:28:2e:16:6f:72:f8:7c:c0:04:
        04:ed:88:43:70:e8:96:07:6b:b1:70:eb:ab:b0:05:2c:99:83:
        4c:87:1e:58:c3:48:3a:d9:24:31:8a:f3:73:7c:87:85:66:d7:
        81:88:a1:2c:9b:86:44:ed:60:bc:45:3a:78:80:df:ab:dc:c7:
        46:ce:6f:cc:29:fc:10:c6:f2:57:96:9a:16:57:de:66:70:17:
        66:04:15:0a:8c:7f:59:4b:99:bc:d9:39:fc:d1:5b:2a:96:b9:
        56:c8:b1:19:41:94:f2:4d:21:9b:3b:32:0c:77:ed:f7:12:e1:
        2a:06:10:b8:7b:1e:9a:0a:71:10:69:f6:bd:81:f5:47:21:52:
        2d:1a:c7:cc:18:60:2c:85:b2:88:5c:30:8e:6d:dd:9c:49:15:
        68:9a:8d:9f:ff:82:94:28:c6:ce:5d:dd:99:42:4d:67:d5:24:
        ca:85:a2:24:cd:39:75:fd:18:83:df:38:a3:56:49:90:03:38:
        ac:e4:d1:dd:f5:e9:3b:b7:9c:b0:df:04:12:92:a6:11:71:9a:
        f4:1c:a7:2b:bf:28:9a:f5:bf:a0:a0:69:0e:da:f9:7e:e2:30:
        b8:d8:de:39:28:ae:44:af:70:33:1b:6e:1c:32:14:ca:92:4f:
        f5:4c:6b:cc:0a:dc:ee:88:6b:6b:ab:56:78:03:cc:74:49:f0:
        e4:4e:01:41:27:f8:62:49:27:80:f5:e3:27:57:ef:19:8d:07:
        8a:2f:80:f1:16:a9:94:d0:6e:34:89:c1:df:77:07:ef:5e:da:
        74:4a:09:db:33:dc:a0:9e:06:4a:e4:cd:16:ac:5f:35:5f:34:
        5d:36:a1:b1:03:db:2c:d9:7b:94:13:6c:5f:2d:96:ac:7e:d5:
        1d:e3:a4:7b:87:c4:a1:d5:84:85:68:cb:91:ce:67:b1:e8:07:
        1f:5f:05:50:64:11:15:b1:67:c5:4e:d4:e3:b1:52:26:ef:f9:
        2f:00:ce:1d:4e:a2:80:3c:e0:29:14:7c:50:41:d0:21:02:7d:
        a9:b6:fc:ab:ad:1e:be:82:0c:c3:25:30:a5:29:77:b7:52:5a:
        bc:96:94:23:37:87:07:ba:c2:c6:ca:be:92:cb:47:72:9c:a8:
        b5:3f:8f:e3:40:6a:70:ee:e9:bf:bf:d1:11:51:0f:a8:c6:d3:
        e0:79:b5:42:d4:86:a3:8f:40:01:3a:57:b9:6e:b1:39:00:cc:
        02:ce:39:cc:f3:dc:06:27:18:a5:01:70:73:8d:e9:1d:3b:19:
        19:85:e8:60:ed:ff:56:d5:36:d7:62:d7:08:33:90:c7:fc:6a:
        64:1c:6c:8e:75:39:00:89
-----BEGIN CERTIFICATE-----
MIIFljCCA36gAwIBAgIUA/HKY3NiJmBrjpzQyGbG9T5QQs4wDQYJKoZIhvcNAQEL
BQAwRzELMAkGA1UEBhMCRVMxCzAJBgNVBAgMAkVTMQ0wCwYDVQQKDAROU0FBMQ0w
CwYDVQQLDAROU0FBMQ0wCwYDVQQDDAROU0FBMB4XDTIzMDUyNzE1NTk1NFoXDTI0
MDUyNjE1NTk1NFowTDELMAkGA1UEBhMCRVMxCzAJBgNVBAgMAkVTMQ0wCwYDVQQK
DAROU0FBMQ0wCwYDVQQLDAROU0FBMRIwEAYDVQQDDAkxMC4wLjIuMTUwggIiMA0G
CSqGSIb3DQEBAQUAA4ICDwAwggIKAoICAQCZeniBDvxoCNuTJZ9nyrev0bzGNOEz
odditzVO/iWganClpVph5O8RXC/iXvIJKdWWA5o7V02Hl2roHBUV+J9a7EnIh9FZ
XV7GP9UUHSWxrLucNLF+6i5ftObQGh8lNdtCrvsyknSAb0yQySBRZWbNF9W6pbwz
AV1NiqJaKOjpe3/csojd2WuQ2UmwmlMFCOjfK+g4pivuqoHSkCvnIjZxyUEZHyY3
MTF9KK+ViotO+q2ofQqh0k4fHxwwT2NYIXKCSsT2FSMPaAyrg54TggmDexz/0fq+
maY2cHopAyeM1L1TQS3IwBymbR8P8UK/6svIIjt6zRasBDQhJ4lwosj7JWtwhF6f
mOCdXnG2sVX/TE7+cajq49agaToJ7Q76eFul72KFQmuQ/2E/A/P93tRZw6LXJl5z
w1RJ1df132xlGKIWIbrrpIUKHt+UYhZCh4RD1S0sRRZkOjBSKfMn4zm5dKjkZe/D
LdoZKT+dH/WeCTTI+RVk+IpLIcg0c6mTDvMqcH3Eo+nsvK24rNhKf7V0xOwic+/v
PBYCKtdMb/V+4xNjt5KaIcZ3ihyiqLPhsagUPGO8Hq1MtNFdR0HWI7fj8KHLpwDU
5LdJfILHniesCKbzISiqICJC7XVU72JAQWxvECmgQsrj4W1QhRR7ijz1/P1dqcYo
iw0inS9HKUIOCQIDAQABo3UwczAJBgNVHRMEAjAAMB0GA1UdDgQWBBSyF6QfeqYg
xE+8ycZ9zAuqPxLWPDAfBgNVHSMEGDAWgBQlvg4Cto20e007xpY21y2afZ5lHTAO
BgNVHQ8BAf8EBAMCB4AwFgYDVR0lAQH/BAwwCgYIKwYBBQUHAwkwDQYJKoZIhvcN
AQELBQADggIBAJy9G9WxmbrGkyguFm9y+HzABATtiENw6JYHa7Fw66uwBSyZg0yH
HljDSDrZJDGK83N8h4Vm14GIoSybhkTtYLxFOniA36vcx0bOb8wp/BDG8leWmhZX
3mZwF2YEFQqMf1lLmbzZOfzRWyqWuVbIsRlBlPJNIZs7Mgx37fcS4SoGELh7HpoK
cRBp9r2B9UchUi0ax8wYYCyFsohcMI5t3ZxJFWiajZ//gpQoxs5d3ZlCTWfVJMqF
oiTNOXX9GIPfOKNWSZADOKzk0d316Tu3nLDfBBKSphFxmvQcpyu/KJr1v6CgaQ7a
+X7iMLjY3jkorkSvcDMbbhwyFMqST/VMa8wK3O6Ia2urVngDzHRJ8OROAUEn+GJJ
J4D14ydX7xmNB4ovgPEWqZTQbjSJwd93B+9e2nRKCdsz3KCeBkrkzRasXzVfNF02
obED2yzZe5QTbF8tlqx+1R3jpHuHxKHVhIVoy5HOZ7HoBx9fBVBkERWxZ8VO1OOx
Uibv+S8Azh1OooA84CkUfFBB0CECfam2/KutHr6CDMMlMKUpd7dSWryWlCM3hwe6
wsbKvpLLR3KcqLU/j+NAanDu6b+/0RFRD6jG0+B5tULUhqOPQAE6V7lusTkAzALO
Oczz3AYnGKUBcHON6R07GRmF6GDt/1bVNtdi1wgzkMf8amQcbI51OQCJ
-----END CERTIFICATE-----
