Certificate:
    Data:
        Version: 3 (0x2)
        Serial Number:
            03:f1:ca:63:73:62:26:60:6b:8e:9c:d0:c8:66:c6:f5:3e:50:42:cd
        Signature Algorithm: sha256WithRSAEncryption
        Issuer: C=ES, ST=ES, O=NSAA, OU=NSAA, CN=NSAA
        Validity
            Not Before: May 27 15:59:01 2023 GMT
            Not After : May 26 15:59:01 2033 GMT
        Subject: C=ES, ST=ES, O=NSAA, OU=NSAA, CN=NSAA
        Subject Public Key Info:
            Public Key Algorithm: rsaEncryption
                Public-Key: (4096 bit)
                Modulus:
                    00:a0:55:ee:c0:3d:5a:e0:fe:d3:1b:30:0c:4c:9d:
                    0e:14:1e:d3:04:1e:64:80:46:11:90:68:0f:03:9d:
                    b3:1d:bd:a8:61:2a:7e:06:3f:5b:12:f8:74:b6:90:
                    e4:f1:52:9d:fa:61:f3:ec:75:06:6f:0f:73:ae:5d:
                    d4:a5:ad:b2:ba:55:dd:01:c1:a2:42:c2:70:d5:4d:
                    3a:01:87:24:c2:8d:32:ec:95:63:49:c2:31:f9:13:
                    bb:56:86:19:f3:cf:1a:62:f8:e4:53:d2:10:ad:44:
                    86:d0:f9:e8:3f:c1:e8:03:4c:ba:9c:12:21:92:64:
                    6e:a0:de:68:e4:90:3e:4a:bc:c9:37:26:0a:54:8d:
                    85:ba:30:92:cb:d2:ba:57:6c:66:dd:db:e0:64:57:
                    9b:e5:5d:b6:1f:49:73:91:09:c4:02:8a:62:c8:82:
                    61:f8:9b:a7:98:d0:29:51:16:db:bc:5a:f4:53:b2:
                    7d:3b:8e:8a:27:de:68:1a:d2:97:09:48:a8:df:88:
                    4e:cb:ca:cb:3c:de:1c:65:d1:8d:01:d6:f4:a9:46:
                    d1:73:3c:5d:28:30:04:f1:2d:9a:27:b3:2e:7a:d9:
                    fd:7e:50:3c:7a:fe:db:9f:da:cf:c5:89:a7:65:50:
                    ba:a8:ae:d3:30:f1:ce:b2:76:87:a1:0c:80:77:43:
                    30:f1:0e:61:64:a3:b7:bd:2a:03:ed:02:e8:92:cc:
                    15:6c:c4:ec:a2:6e:b6:0d:b2:93:51:e3:a2:79:68:
                    ed:35:ec:23:b6:bf:7a:6c:a1:10:67:40:eb:14:94:
                    9e:4c:c2:38:b0:40:d8:46:16:70:31:45:59:6a:04:
                    43:0a:69:78:2f:04:63:32:50:7b:d0:77:c0:97:ab:
                    3c:fa:18:c6:3d:1e:0d:46:36:7e:14:e3:55:a8:54:
                    71:17:3f:70:cd:cf:4b:83:37:de:1c:31:c4:d3:a4:
                    5f:29:f8:b8:5f:80:bb:61:a0:89:05:18:17:26:ad:
                    d4:f0:d7:0e:1d:ea:30:97:2a:d6:88:5a:36:b3:bf:
                    ea:37:a6:39:6a:7d:84:d8:44:c4:c3:45:a0:55:e2:
                    1b:64:db:b8:7f:de:b8:1e:6b:91:55:df:38:53:23:
                    c6:72:db:6d:92:d3:f4:ff:0a:fe:b8:7c:ad:c4:c1:
                    ac:dd:a8:21:dc:eb:64:d9:22:93:46:83:a0:34:33:
                    45:51:3d:86:f8:9c:b3:58:b8:1d:41:c7:db:a2:2a:
                    57:0e:07:0c:00:a0:00:7c:1e:9f:26:5f:0e:a2:8a:
                    f4:dd:64:47:16:cf:0c:26:81:82:17:ad:fa:17:fb:
                    58:d2:5b:8f:00:61:fc:50:9a:8d:e9:ab:7d:7e:ce:
                    22:a7:7d
                Exponent: 65537 (0x10001)
        X509v3 extensions:
            X509v3 Basic Constraints: critical
                CA:TRUE
            X509v3 Subject Key Identifier: 
                25:BE:0E:02:B6:8D:B4:7B:4D:3B:C6:96:36:D7:2D:9A:7D:9E:65:1D
            X509v3 Authority Key Identifier: 
                25:BE:0E:02:B6:8D:B4:7B:4D:3B:C6:96:36:D7:2D:9A:7D:9E:65:1D
            X509v3 Key Usage: critical
                Certificate Sign, CRL Sign
    Signature Algorithm: sha256WithRSAEncryption
    Signature Value:
        8f:d9:c1:bd:34:cf:dd:88:2f:22:84:e3:29:2c:72:3d:cb:aa:
        b1:7a:67:bf:c1:e1:df:5b:ed:c9:e3:9e:f6:17:b1:ab:43:29:
        4f:95:1c:40:dc:65:40:0f:5e:0f:e2:4d:6a:01:eb:97:e2:b3:
        47:03:69:af:79:2b:8f:78:04:1c:75:09:f3:06:34:ce:6e:cb:
        11:0d:f0:01:59:cd:12:da:3c:92:5e:1f:19:4e:92:47:7e:f2:
        ab:c5:74:31:78:3f:21:9b:9f:6d:98:f3:df:51:26:23:a7:25:
        c3:47:05:82:b1:c0:09:67:81:c2:26:9a:98:6f:e1:66:88:e8:
        7b:68:dc:d2:8e:a2:1c:dc:87:e7:36:64:b9:d8:f9:08:00:23:
        43:62:a7:27:6b:5a:ab:0c:3f:66:c8:47:56:9a:aa:d1:40:7c:
        f4:ea:73:f7:52:2f:34:86:31:61:54:5a:fd:bc:3d:d7:27:14:
        55:43:56:d9:d7:10:9a:33:57:4f:e9:a7:3f:4f:82:59:bc:d7:
        db:b2:9d:7e:4c:1d:8b:91:80:a7:dd:4f:e1:ba:3d:84:f6:05:
        a9:5a:64:1e:35:8f:0d:43:f4:40:61:93:bc:42:33:08:e7:aa:
        a8:43:8e:3f:6a:ed:a4:eb:90:b3:7b:b6:1e:5d:f8:54:b4:2c:
        bb:96:6f:5d:8d:7c:80:74:74:14:70:49:6e:f8:9e:21:11:79:
        62:69:99:1f:37:e8:eb:a7:87:5c:ef:86:de:8a:2e:52:24:00:
        98:f1:f4:23:46:2f:5e:0f:74:7c:a9:5d:47:be:9d:94:3e:3f:
        c8:53:50:f3:ed:89:e5:d2:4f:10:0a:bb:17:21:bd:c6:51:ec:
        79:27:34:15:fe:28:d4:d7:a5:a1:d1:ba:0b:e7:32:06:6f:76:
        de:18:b8:aa:f5:5e:2b:c2:f4:82:f5:f6:94:27:13:3c:91:dc:
        84:52:e3:9a:63:32:bd:03:21:24:ff:c8:66:7b:73:cf:89:ba:
        a8:f7:f4:c6:49:40:c0:84:b8:09:99:59:32:62:2a:d1:24:3c:
        87:fa:60:49:e1:50:8d:41:cb:ea:35:73:73:e5:ab:ef:d2:0c:
        4d:94:0a:51:fa:fc:45:26:8a:8a:9f:a3:71:87:84:79:f2:b4:
        53:ad:39:c6:91:ff:82:9b:b3:f1:ac:2a:16:76:ab:64:07:59:
        3c:fe:02:e9:b5:e8:75:32:ce:04:99:96:c5:85:27:04:e0:a7:
        83:e1:50:d9:34:2b:14:fb:fe:15:b4:05:ec:3e:3e:d5:af:ca:
        01:6e:54:e2:8c:c5:bf:00:47:b3:df:3a:eb:96:5b:1c:82:36:
        cf:47:4c:c8:f9:d0:f2:60
-----BEGIN CERTIFICATE-----
MIIFfzCCA2egAwIBAgIUA/HKY3NiJmBrjpzQyGbG9T5QQs0wDQYJKoZIhvcNAQEL
BQAwRzELMAkGA1UEBhMCRVMxCzAJBgNVBAgMAkVTMQ0wCwYDVQQKDAROU0FBMQ0w
CwYDVQQLDAROU0FBMQ0wCwYDVQQDDAROU0FBMB4XDTIzMDUyNzE1NTkwMVoXDTMz
MDUyNjE1NTkwMVowRzELMAkGA1UEBhMCRVMxCzAJBgNVBAgMAkVTMQ0wCwYDVQQK
DAROU0FBMQ0wCwYDVQQLDAROU0FBMQ0wCwYDVQQDDAROU0FBMIICIjANBgkqhkiG
9w0BAQEFAAOCAg8AMIICCgKCAgEAoFXuwD1a4P7TGzAMTJ0OFB7TBB5kgEYRkGgP
A52zHb2oYSp+Bj9bEvh0tpDk8VKd+mHz7HUGbw9zrl3Upa2yulXdAcGiQsJw1U06
AYckwo0y7JVjScIx+RO7VoYZ888aYvjkU9IQrUSG0PnoP8HoA0y6nBIhkmRuoN5o
5JA+SrzJNyYKVI2FujCSy9K6V2xm3dvgZFeb5V22H0lzkQnEAopiyIJh+JunmNAp
URbbvFr0U7J9O46KJ95oGtKXCUio34hOy8rLPN4cZdGNAdb0qUbRczxdKDAE8S2a
J7Muetn9flA8ev7bn9rPxYmnZVC6qK7TMPHOsnaHoQyAd0Mw8Q5hZKO3vSoD7QLo
kswVbMTsom62DbKTUeOieWjtNewjtr96bKEQZ0DrFJSeTMI4sEDYRhZwMUVZagRD
Cml4LwRjMlB70HfAl6s8+hjGPR4NRjZ+FONVqFRxFz9wzc9LgzfeHDHE06RfKfi4
X4C7YaCJBRgXJq3U8NcOHeowlyrWiFo2s7/qN6Y5an2E2ETEw0WgVeIbZNu4f964
HmuRVd84UyPGctttktP0/wr+uHytxMGs3agh3Otk2SKTRoOgNDNFUT2G+JyzWLgd
QcfboipXDgcMAKAAfB6fJl8Ooor03WRHFs8MJoGCF636F/tY0luPAGH8UJqN6at9
fs4ip30CAwEAAaNjMGEwDwYDVR0TAQH/BAUwAwEB/zAdBgNVHQ4EFgQUJb4OAraN
tHtNO8aWNtctmn2eZR0wHwYDVR0jBBgwFoAUJb4OAraNtHtNO8aWNtctmn2eZR0w
DgYDVR0PAQH/BAQDAgEGMA0GCSqGSIb3DQEBCwUAA4ICAQCP2cG9NM/diC8ihOMp
LHI9y6qxeme/weHfW+3J4572F7GrQylPlRxA3GVAD14P4k1qAeuX4rNHA2mveSuP
eAQcdQnzBjTObssRDfABWc0S2jySXh8ZTpJHfvKrxXQxeD8hm59tmPPfUSYjpyXD
RwWCscAJZ4HCJpqYb+FmiOh7aNzSjqIc3IfnNmS52PkIACNDYqcna1qrDD9myEdW
mqrRQHz06nP3Ui80hjFhVFr9vD3XJxRVQ1bZ1xCaM1dP6ac/T4JZvNfbsp1+TB2L
kYCn3U/huj2E9gWpWmQeNY8NQ/RAYZO8QjMI56qoQ44/au2k65Cze7YeXfhUtCy7
lm9djXyAdHQUcElu+J4hEXliaZkfN+jrp4dc74beii5SJACY8fQjRi9eD3R8qV1H
vp2UPj/IU1Dz7Ynl0k8QCrsXIb3GUex5JzQV/ijU16Wh0boL5zIGb3beGLiq9V4r
wvSC9faUJxM8kdyEUuOaYzK9AyEk/8hme3PPibqo9/TGSUDAhLgJmVkyYirRJDyH
+mBJ4VCNQcvqNXNz5avv0gxNlApR+vxFJoqKn6Nxh4R58rRTrTnGkf+Cm7PxrCoW
dqtkB1k8/gLpteh1Ms4EmZbFhScE4KeD4VDZNCsU+/4VtAXsPj7Vr8oBblTijMW/
AEez3zrrllscgjbPR0zI+dDyYA==
-----END CERTIFICATE-----
