Certificate:
    Data:
        Version: 3 (0x2)
        Serial Number:
            03:f1:ca:63:73:62:26:60:6b:8e:9c:d0:c8:66:c6:f5:3e:50:42:cf
        Signature Algorithm: sha256WithRSAEncryption
        Issuer: C=ES, ST=ES, O=NSAA, OU=NSAA, CN=NSAA
        Validity
            Not Before: May 27 16:05:17 2023 GMT
            Not After : May 26 16:05:17 2024 GMT
        Subject: C=ES, ST=ES, O=NSAA, OU=NSAA, CN=NSAA radius
        Subject Public Key Info:
            Public Key Algorithm: rsaEncryption
                Public-Key: (4096 bit)
                Modulus:
                    00:a6:e7:ed:9a:71:eb:3b:54:65:1e:4f:4c:a9:e0:
                    15:14:bc:86:bd:88:c0:2e:0c:9d:34:9b:2f:35:ae:
                    bd:49:7e:ba:4d:86:a8:1e:9a:ea:0f:38:7d:19:dc:
                    3f:7d:54:60:e9:bd:c3:d6:8f:39:cb:1c:f5:d9:98:
                    70:01:e0:6c:92:80:99:43:e2:49:8e:0d:14:3f:9b:
                    8e:ab:40:91:43:aa:0d:24:29:91:8f:1f:6d:cf:af:
                    2e:aa:78:7c:58:92:a8:c6:fc:51:40:a1:5f:62:cc:
                    8d:a6:9b:54:25:6c:3d:c2:e3:88:7a:17:1d:61:0a:
                    58:a1:ac:ef:98:87:01:a1:53:bd:7c:75:cf:d5:11:
                    ce:ee:fc:da:c1:a3:bc:05:09:34:7d:b0:2c:95:a5:
                    cd:c0:44:02:c8:eb:a7:d3:93:a3:52:72:d0:8f:ce:
                    d2:1b:14:78:f5:74:d4:c4:a5:db:36:d0:bd:5c:6b:
                    f2:34:08:bf:77:b6:70:23:49:7b:4a:e0:c4:b2:62:
                    f6:21:71:d6:b3:46:94:16:b9:1d:86:84:da:86:27:
                    3e:bd:59:62:ee:1c:9f:7f:42:3a:a4:69:77:4e:02:
                    e4:51:fc:fc:ce:5c:a0:a0:02:17:ca:36:17:3e:c7:
                    2f:8d:fa:cb:2d:e2:ac:8c:46:8c:e8:f8:72:98:b6:
                    e2:a3:14:8f:bf:f8:db:d0:a7:6c:30:4b:ec:b5:6d:
                    d7:78:f9:65:72:50:32:3c:58:e5:3d:89:ac:6e:5b:
                    2f:7e:f4:f4:7e:29:54:14:16:66:06:02:a5:42:f8:
                    ad:05:f7:4c:12:75:75:3d:05:d0:9f:5f:b5:75:0e:
                    e9:f2:dd:b6:ff:4b:ef:fb:bf:5f:6e:e1:05:fe:82:
                    e0:70:ee:15:87:4b:a2:eb:89:76:42:6f:92:32:81:
                    0a:0b:b8:06:c1:48:4c:98:ae:8b:2a:9f:56:04:b8:
                    5e:f0:36:b6:2d:3a:72:f7:d5:d4:61:9b:fc:6f:35:
                    66:6c:c2:d8:f0:7a:9c:ca:00:b3:e1:70:28:8a:40:
                    35:b8:b1:8e:b9:28:15:06:d5:82:de:f7:f3:c6:db:
                    25:88:9f:d3:36:77:9c:c1:cf:b1:26:9e:73:1e:83:
                    c7:36:ba:1a:60:e3:94:7e:d1:01:42:cb:7e:01:40:
                    fc:8c:fe:46:35:83:12:d8:5d:65:25:53:b0:93:8c:
                    fb:a7:24:9d:84:3a:f1:de:9f:db:7a:f1:b9:9b:c9:
                    40:d9:0b:1b:57:8b:8d:47:ff:e2:69:9f:ad:06:13:
                    40:87:02:09:fb:2a:c9:e5:f0:d8:b6:7f:a4:d9:09:
                    cb:13:00:59:64:42:db:ed:5e:45:bc:ee:30:18:a7:
                    90:2a:23
                Exponent: 65537 (0x10001)
        X509v3 extensions:
            X509v3 Extended Key Usage: 
                TLS Web Server Authentication
            X509v3 Subject Key Identifier: 
                E2:E6:80:7F:AF:13:7C:2F:2C:BE:90:95:5A:DA:2A:55:63:07:4F:75
            X509v3 Authority Key Identifier: 
                25:BE:0E:02:B6:8D:B4:7B:4D:3B:C6:96:36:D7:2D:9A:7D:9E:65:1D
    Signature Algorithm: sha256WithRSAEncryption
    Signature Value:
        9e:f2:df:a8:d8:16:8e:c0:0a:76:a5:2a:96:7d:8d:75:07:81:
        b4:a4:e9:bd:99:02:0a:28:83:77:79:25:45:26:25:e8:95:9f:
        8e:03:1a:25:d8:2c:d6:64:92:a1:36:73:52:38:60:ef:6c:51:
        68:c7:28:7e:ed:d4:2d:49:d8:f7:a7:3a:94:52:3f:bd:40:f6:
        55:a6:ae:33:19:ee:56:e2:05:8a:a3:01:65:a2:03:52:99:7d:
        a7:17:3c:ca:00:49:64:42:30:25:38:2c:58:58:4d:ef:9d:52:
        cc:c5:65:0c:4f:82:61:61:7e:9e:54:77:7b:37:67:67:b0:3b:
        5e:2e:c9:e2:6f:32:97:d0:47:05:4c:23:16:cc:b4:c4:5c:d4:
        0e:70:a6:16:52:5a:cf:fd:3d:fb:09:00:11:6b:57:e0:ca:7c:
        c4:0a:c8:a4:11:f3:0a:45:dd:ac:90:29:a4:3c:3a:0d:64:5e:
        7e:8f:4b:92:cd:be:77:f0:fb:54:ab:57:7f:b2:48:32:57:65:
        1e:45:c8:2d:01:c1:1e:df:32:42:7c:01:bc:89:33:05:b4:95:
        e9:46:be:7f:f2:e8:82:6f:56:21:59:9a:87:e3:cb:78:fa:20:
        31:ed:3b:36:3a:d8:5f:58:e4:3a:2a:a1:27:18:96:b8:ab:e0:
        73:f0:09:34:af:82:22:8d:d0:86:34:e6:c0:4f:3e:73:13:7b:
        94:45:d9:2d:90:e3:b7:60:fa:15:bc:d3:d3:97:9b:1b:1d:14:
        8d:84:cb:37:a2:2a:2f:ed:6e:b6:62:f4:70:d2:19:44:08:da:
        f6:86:87:38:9b:cf:e2:da:c3:a9:de:01:39:d9:4c:bc:81:81:
        87:26:26:4f:f2:23:52:cf:f2:45:5b:83:96:39:5f:57:64:ec:
        a7:e7:6e:a2:93:4e:56:52:47:22:4d:20:dc:0d:af:a2:26:f1:
        27:6a:61:c4:91:ad:97:74:01:21:01:32:8f:fa:66:31:a7:4c:
        a4:a9:fb:2a:89:61:92:cd:a5:e0:c2:9e:38:25:a9:d7:29:23:
        0b:72:8f:04:eb:12:a2:1e:5c:a1:b5:c2:b5:d6:c9:a3:9e:59:
        d4:31:6f:b7:ec:48:4b:f1:9f:2e:2a:de:c2:c6:d7:59:3f:d4:
        8e:fa:c3:17:40:70:59:12:73:98:41:86:ea:49:59:02:41:20:
        7a:c5:49:9e:09:52:d9:da:2a:cb:6a:fe:84:a3:18:b9:fc:f6:
        29:52:c1:30:42:d8:be:03:38:0a:b0:db:3b:0f:b2:f5:55:a5:
        5c:4c:f5:e8:15:91:81:6c:20:51:30:6e:62:ac:a2:85:e7:e0:
        49:bc:0a:12:78:03:cd:30
-----BEGIN CERTIFICATE-----
MIIFejCCA2KgAwIBAgIUA/HKY3NiJmBrjpzQyGbG9T5QQs8wDQYJKoZIhvcNAQEL
BQAwRzELMAkGA1UEBhMCRVMxCzAJBgNVBAgMAkVTMQ0wCwYDVQQKDAROU0FBMQ0w
CwYDVQQLDAROU0FBMQ0wCwYDVQQDDAROU0FBMB4XDTIzMDUyNzE2MDUxN1oXDTI0
MDUyNjE2MDUxN1owTjELMAkGA1UEBhMCRVMxCzAJBgNVBAgMAkVTMQ0wCwYDVQQK
DAROU0FBMQ0wCwYDVQQLDAROU0FBMRQwEgYDVQQDDAtOU0FBIHJhZGl1czCCAiIw
DQYJKoZIhvcNAQEBBQADggIPADCCAgoCggIBAKbn7Zpx6ztUZR5PTKngFRS8hr2I
wC4MnTSbLzWuvUl+uk2GqB6a6g84fRncP31UYOm9w9aPOcsc9dmYcAHgbJKAmUPi
SY4NFD+bjqtAkUOqDSQpkY8fbc+vLqp4fFiSqMb8UUChX2LMjaabVCVsPcLjiHoX
HWEKWKGs75iHAaFTvXx1z9URzu782sGjvAUJNH2wLJWlzcBEAsjrp9OTo1Jy0I/O
0hsUePV01MSl2zbQvVxr8jQIv3e2cCNJe0rgxLJi9iFx1rNGlBa5HYaE2oYnPr1Z
Yu4cn39COqRpd04C5FH8/M5coKACF8o2Fz7HL436yy3irIxGjOj4cpi24qMUj7/4
29CnbDBL7LVt13j5ZXJQMjxY5T2JrG5bL3709H4pVBQWZgYCpUL4rQX3TBJ1dT0F
0J9ftXUO6fLdtv9L7/u/X27hBf6C4HDuFYdLouuJdkJvkjKBCgu4BsFITJiuiyqf
VgS4XvA2ti06cvfV1GGb/G81ZmzC2PB6nMoAs+FwKIpANbixjrkoFQbVgt7388bb
JYif0zZ3nMHPsSaecx6Dxza6GmDjlH7RAULLfgFA/Iz+RjWDEthdZSVTsJOM+6ck
nYQ68d6f23rxuZvJQNkLG1eLjUf/4mmfrQYTQIcCCfsqyeXw2LZ/pNkJyxMAWWRC
2+1eRbzuMBinkCojAgMBAAGjVzBVMBMGA1UdJQQMMAoGCCsGAQUFBwMBMB0GA1Ud
DgQWBBTi5oB/rxN8Lyy+kJVa2ipVYwdPdTAfBgNVHSMEGDAWgBQlvg4Cto20e007
xpY21y2afZ5lHTANBgkqhkiG9w0BAQsFAAOCAgEAnvLfqNgWjsAKdqUqln2NdQeB
tKTpvZkCCiiDd3klRSYl6JWfjgMaJdgs1mSSoTZzUjhg72xRaMcofu3ULUnY96c6
lFI/vUD2VaauMxnuVuIFiqMBZaIDUpl9pxc8ygBJZEIwJTgsWFhN751SzMVlDE+C
YWF+nlR3ezdnZ7A7Xi7J4m8yl9BHBUwjFsy0xFzUDnCmFlJaz/09+wkAEWtX4Mp8
xArIpBHzCkXdrJAppDw6DWRefo9Lks2+d/D7VKtXf7JIMldlHkXILQHBHt8yQnwB
vIkzBbSV6Ua+f/Logm9WIVmah+PLePogMe07NjrYX1jkOiqhJxiWuKvgc/AJNK+C
Io3QhjTmwE8+cxN7lEXZLZDjt2D6FbzT05ebGx0UjYTLN6IqL+1utmL0cNIZRAja
9oaHOJvP4trDqd4BOdlMvIGBhyYmT/IjUs/yRVuDljlfV2Tsp+duopNOVlJHIk0g
3A2voibxJ2phxJGtl3QBIQEyj/pmMadMpKn7Kolhks2l4MKeOCWp1ykjC3KPBOsS
oh5cobXCtdbJo55Z1DFvt+xIS/GfLirewsbXWT/UjvrDF0BwWRJzmEGG6klZAkEg
esVJnglS2doqy2r+hKMYufz2KVLBMELYvgM4CrDbOw+y9VWlXEz16BWRgWwgUTBu
YqyihefgSbwKEngDzTA=
-----END CERTIFICATE-----
